target datalayout = "e-m:e-p270:32:32-p271:32:32-p272:64:64-i64:64-i128:128-f80:128-n8:16:32:64-S128"
target triple = "x86_64-pc-linux-gnu"

%struct.Ses_Store_t_ = type { i32, i32, i32, i32, i32, i32, [1024 x ptr], ptr, ptr, ptr, i64, [9 x i64], i64, [9 x i64], i64, [9 x i64], i64, [9 x i64], i64, [9 x i64], i64, [9 x i64], i64, [9 x i64], i64, i64, i64, i64, i64, i64, i64, i64, i64, i64 }
%struct.Ses_TruthEntry_t_ = type { [4 x i64], i32, ptr, ptr }
%struct.Ses_TimesEntry_t_ = type { [8 x i32], i32, ptr, ptr }

@s_pSesStore = internal global ptr null, align 8
@.str.4 = private unnamed_addr constant [34 x i8] c"BMS manager has not been started\0A\00", align 1

; Function Attrs: inlinehint nounwind uwtable
define internal void @Ses_StoreClean(ptr noundef %0) #2 {
  %2 = alloca ptr, align 8
  %3 = alloca i32, align 4
  %4 = alloca ptr, align 8
  %5 = alloca ptr, align 8
  %6 = alloca ptr, align 8
  %7 = alloca ptr, align 8
  store ptr %0, ptr %2, align 8, !tbaa !3
  call void @llvm.lifetime.start.p0(i64 4, ptr %3) #14
  call void @llvm.lifetime.start.p0(i64 8, ptr %4) #14
  call void @llvm.lifetime.start.p0(i64 8, ptr %5) #14
  call void @llvm.lifetime.start.p0(i64 8, ptr %6) #14
  call void @llvm.lifetime.start.p0(i64 8, ptr %7) #14
  store i32 0, ptr %3, align 4, !tbaa !10
  br label %8

8:                                                ; preds = %72, %1
  %9 = load i32, ptr %3, align 4, !tbaa !10
  %10 = icmp slt i32 %9, 1024
  br i1 %10, label %11, label %75

11:                                               ; preds = %8
  %12 = load ptr, ptr %2, align 8, !tbaa !3
  %13 = getelementptr inbounds nuw %struct.Ses_Store_t_, ptr %12, i32 0, i32 6
  %14 = load i32, ptr %3, align 4, !tbaa !10
  %15 = sext i32 %14 to i64
  %16 = getelementptr inbounds [1024 x ptr], ptr %13, i64 0, i64 %15
  %17 = load ptr, ptr %16, align 8, !tbaa !16
  %18 = icmp ne ptr %17, null
  br i1 %18, label %19, label %71

19:                                               ; preds = %11
  %20 = load ptr, ptr %2, align 8, !tbaa !3
  %21 = getelementptr inbounds nuw %struct.Ses_Store_t_, ptr %20, i32 0, i32 6
  %22 = load i32, ptr %3, align 4, !tbaa !10
  %23 = sext i32 %22 to i64
  %24 = getelementptr inbounds [1024 x ptr], ptr %21, i64 0, i64 %23
  %25 = load ptr, ptr %24, align 8, !tbaa !16
  store ptr %25, ptr %4, align 8, !tbaa !16
  br label %26

26:                                               ; preds = %69, %19
  %27 = load ptr, ptr %4, align 8, !tbaa !16
  %28 = icmp ne ptr %27, null
  br i1 %28, label %29, label %70

29:                                               ; preds = %26
  %30 = load ptr, ptr %4, align 8, !tbaa !16
  %31 = getelementptr inbounds nuw %struct.Ses_TruthEntry_t_, ptr %30, i32 0, i32 3
  %32 = load ptr, ptr %31, align 8, !tbaa !23
  store ptr %32, ptr %6, align 8, !tbaa !24
  br label %33

33:                                               ; preds = %58, %29
  %34 = load ptr, ptr %6, align 8, !tbaa !24
  %35 = icmp ne ptr %34, null
  br i1 %35, label %36, label %59

36:                                               ; preds = %33
  %37 = load ptr, ptr %6, align 8, !tbaa !24
  %38 = getelementptr inbounds nuw %struct.Ses_TimesEntry_t_, ptr %37, i32 0, i32 3
  %39 = load ptr, ptr %38, align 8, !tbaa !28
  %40 = icmp ne ptr %39, null
  br i1 %40, label %41, label %47

41:                                               ; preds = %36
  %42 = load ptr, ptr %6, align 8, !tbaa !24
  %43 = getelementptr inbounds nuw %struct.Ses_TimesEntry_t_, ptr %42, i32 0, i32 3
  %44 = load ptr, ptr %43, align 8, !tbaa !28
  call void @free(ptr noundef %44) #14
  %45 = load ptr, ptr %6, align 8, !tbaa !24
  %46 = getelementptr inbounds nuw %struct.Ses_TimesEntry_t_, ptr %45, i32 0, i32 3
  store ptr null, ptr %46, align 8, !tbaa !28
  br label %48

47:                                               ; preds = %36
  br label %48

48:                                               ; preds = %47, %41
  %49 = load ptr, ptr %6, align 8, !tbaa !24
  store ptr %49, ptr %7, align 8, !tbaa !24
  %50 = load ptr, ptr %6, align 8, !tbaa !24
  %51 = getelementptr inbounds nuw %struct.Ses_TimesEntry_t_, ptr %50, i32 0, i32 2
  %52 = load ptr, ptr %51, align 8, !tbaa !25
  store ptr %52, ptr %6, align 8, !tbaa !24
  %53 = load ptr, ptr %7, align 8, !tbaa !24
  %54 = icmp ne ptr %53, null
  br i1 %54, label %55, label %57

55:                                               ; preds = %48
  %56 = load ptr, ptr %7, align 8, !tbaa !24
  call void @free(ptr noundef %56) #14
  store ptr null, ptr %7, align 8, !tbaa !24
  br label %58

57:                                               ; preds = %48
  br label %58

58:                                               ; preds = %57, %55
  br label %33, !llvm.loop !158

59:                                               ; preds = %33
  %60 = load ptr, ptr %4, align 8, !tbaa !16
  store ptr %60, ptr %5, align 8, !tbaa !16
  %61 = load ptr, ptr %4, align 8, !tbaa !16
  %62 = getelementptr inbounds nuw %struct.Ses_TruthEntry_t_, ptr %61, i32 0, i32 2
  %63 = load ptr, ptr %62, align 8, !tbaa !18
  store ptr %63, ptr %4, align 8, !tbaa !16
  %64 = load ptr, ptr %5, align 8, !tbaa !16
  %65 = icmp ne ptr %64, null
  br i1 %65, label %66, label %68

66:                                               ; preds = %59
  %67 = load ptr, ptr %5, align 8, !tbaa !16
  call void @free(ptr noundef %67) #14
  store ptr null, ptr %5, align 8, !tbaa !16
  br label %69

68:                                               ; preds = %59
  br label %69

69:                                               ; preds = %68, %66
  br label %26, !llvm.loop !159

70:                                               ; preds = %26
  br label %71

71:                                               ; preds = %70, %11
  br label %72

72:                                               ; preds = %71
  %73 = load i32, ptr %3, align 4, !tbaa !10
  %74 = add nsw i32 %73, 1
  store i32 %74, ptr %3, align 4, !tbaa !10
  br label %8, !llvm.loop !160

75:                                               ; preds = %8
  %76 = load ptr, ptr %2, align 8, !tbaa !3
  %77 = getelementptr inbounds nuw %struct.Ses_Store_t_, ptr %76, i32 0, i32 7
  %78 = load ptr, ptr %77, align 8, !tbaa !156
  call void @sat_solver_delete(ptr noundef %78)
  %79 = load ptr, ptr %2, align 8, !tbaa !3
  %80 = getelementptr inbounds nuw %struct.Ses_Store_t_, ptr %79, i32 0, i32 9
  %81 = load ptr, ptr %80, align 8, !tbaa !41
  %82 = icmp ne ptr %81, null
  br i1 %82, label %83, label %96

83:                                               ; preds = %75
  %84 = load ptr, ptr %2, align 8, !tbaa !3
  %85 = getelementptr inbounds nuw %struct.Ses_Store_t_, ptr %84, i32 0, i32 9
  %86 = load ptr, ptr %85, align 8, !tbaa !41
  %87 = icmp ne ptr %86, null
  br i1 %87, label %88, label %94

88:                                               ; preds = %83
  %89 = load ptr, ptr %2, align 8, !tbaa !3
  %90 = getelementptr inbounds nuw %struct.Ses_Store_t_, ptr %89, i32 0, i32 9
  %91 = load ptr, ptr %90, align 8, !tbaa !41
  call void @free(ptr noundef %91) #14
  %92 = load ptr, ptr %2, align 8, !tbaa !3
  %93 = getelementptr inbounds nuw %struct.Ses_Store_t_, ptr %92, i32 0, i32 9
  store ptr null, ptr %93, align 8, !tbaa !41
  br label %95

94:                                               ; preds = %83
  br label %95

95:                                               ; preds = %94, %88
  br label %96

96:                                               ; preds = %95, %75
  %97 = load ptr, ptr %2, align 8, !tbaa !3
  %98 = icmp ne ptr %97, null
  br i1 %98, label %99, label %101

99:                                               ; preds = %96
  %100 = load ptr, ptr %2, align 8, !tbaa !3
  call void @free(ptr noundef %100) #14
  store ptr null, ptr %2, align 8, !tbaa !3
  br label %102

101:                                              ; preds = %96
  br label %102

102:                                              ; preds = %101, %99
  call void @llvm.lifetime.end.p0(i64 8, ptr %7) #14
  call void @llvm.lifetime.end.p0(i64 8, ptr %6) #14
  call void @llvm.lifetime.end.p0(i64 8, ptr %5) #14
  call void @llvm.lifetime.end.p0(i64 8, ptr %4) #14
  call void @llvm.lifetime.end.p0(i64 4, ptr %3) #14
  ret void
}

; Function Attrs: nounwind uwtable
define void @Abc_ExactStop(ptr noundef %0) #0 {
  %2 = alloca ptr, align 8
  store ptr %0, ptr %2, align 8, !tbaa !14
  %3 = load ptr, ptr @s_pSesStore, align 8, !tbaa !3
  %4 = icmp ne ptr %3, null
  br i1 %4, label %5, label %23

5:                                                ; preds = %1
  %6 = load ptr, ptr %2, align 8, !tbaa !14
  %7 = icmp ne ptr %6, null
  br i1 %7, label %8, label %11

8:                                                ; preds = %5
  %9 = load ptr, ptr @s_pSesStore, align 8, !tbaa !3
  %10 = load ptr, ptr %2, align 8, !tbaa !14
  call void @Ses_StoreWrite(ptr noundef %9, ptr noundef %10, i32 noundef 1, i32 noundef 0, i32 noundef 0, i32 noundef 0)
  br label %11

11:                                               ; preds = %8, %5
  %12 = load ptr, ptr @s_pSesStore, align 8, !tbaa !3
  %13 = getelementptr inbounds nuw %struct.Ses_Store_t_, ptr %12, i32 0, i32 8
  %14 = load ptr, ptr %13, align 8, !tbaa !152
  %15 = icmp ne ptr %14, null
  br i1 %15, label %16, label %21

16:                                               ; preds = %11
  %17 = load ptr, ptr @s_pSesStore, align 8, !tbaa !3
  %18 = getelementptr inbounds nuw %struct.Ses_Store_t_, ptr %17, i32 0, i32 8
  %19 = load ptr, ptr %18, align 8, !tbaa !152
  %20 = call i32 @fclose(ptr noundef %19)
  br label %21

21:                                               ; preds = %16, %11
  %22 = load ptr, ptr @s_pSesStore, align 8, !tbaa !3
  call void @Ses_StoreClean(ptr noundef %22)
  br label %25

23:                                               ; preds = %1
  %24 = call i32 (ptr, ...) @printf(ptr noundef @.str.4)
  br label %25

25:                                               ; preds = %23, %21
  ret void
}