; Function Attrs: nounwind uwtable
define void @Abc_ExactStop(ptr noundef %0) local_unnamed_addr #0 {
  %2 = load ptr, ptr @s_pSesStore, align 8, !tbaa !167
  %.not = icmp eq ptr %2, null
  br i1 %.not, label %33, label %3

3:                                                ; preds = %1
  %.not4 = icmp eq ptr %0, null
  br i1 %.not4, label %5, label %4

4:                                                ; preds = %3
  tail call fastcc void @Ses_StoreWrite(ptr noundef nonnull %2, ptr noundef %0)
  %.pre = load ptr, ptr @s_pSesStore, align 8, !tbaa !167
  br label %5

5:                                                ; preds = %4, %3
  %6 = phi ptr [ %.pre, %4 ], [ %2, %3 ]
  %7 = getelementptr inbounds nuw i8, ptr %6, i64 8224
  %8 = load ptr, ptr %7, align 8, !tbaa !175
  %.not5 = icmp eq ptr %8, null
  br i1 %.not5, label %11, label %9

9:                                                ; preds = %5
  %10 = tail call i32 @fclose(ptr noundef nonnull %8)
  %.pre6 = load ptr, ptr @s_pSesStore, align 8, !tbaa !167
  br label %11

11:                                               ; preds = %9, %5
  %12 = phi ptr [ %.pre6, %9 ], [ %6, %5 ]
  %13 = getelementptr inbounds nuw i8, ptr %12, i64 24
  br label %14

14:                                               ; preds = %.loopexit.i, %11
  %indvars.iv.i = phi i64 [ 0, %11 ], [ %indvars.iv.next.i, %.loopexit.i ]
  %15 = getelementptr inbounds nuw [1024 x ptr], ptr %13, i64 0, i64 %indvars.iv.i
  %16 = load ptr, ptr %15, align 8, !tbaa !11
  %.not33.i = icmp eq ptr %16, null
  br i1 %.not33.i, label %.loopexit.i, label %.preheader.i

.preheader.i:                                     ; preds = %14, %._crit_edge.i
  %.02639.i = phi ptr [ %26, %._crit_edge.i ], [ %16, %14 ]
  %17 = getelementptr inbounds nuw i8, ptr %.02639.i, i64 48
  %18 = load ptr, ptr %17, align 8, !tbaa !28
  %.not3537.i = icmp eq ptr %18, null
  br i1 %.not3537.i, label %._crit_edge.i, label %.lr.ph.i

.lr.ph.i:                                         ; preds = %.preheader.i, %22
  %.038.i = phi ptr [ %24, %22 ], [ %18, %.preheader.i ]
  %19 = getelementptr inbounds nuw i8, ptr %.038.i, i64 48
  %20 = load ptr, ptr %19, align 8, !tbaa !23
  %.not36.i = icmp eq ptr %20, null
  br i1 %.not36.i, label %22, label %21

21:                                               ; preds = %.lr.ph.i
  tail call void @free(ptr noundef nonnull %20) #29
  br label %22

22:                                               ; preds = %21, %.lr.ph.i
  %23 = getelementptr inbounds nuw i8, ptr %.038.i, i64 40
  %24 = load ptr, ptr %23, align 8, !tbaa !27
  tail call void @free(ptr noundef nonnull %.038.i) #29
  %.not35.i = icmp eq ptr %24, null
  br i1 %.not35.i, label %._crit_edge.i, label %.lr.ph.i, !llvm.loop !176

._crit_edge.i:                                    ; preds = %22, %.preheader.i
  %25 = getelementptr inbounds nuw i8, ptr %.02639.i, i64 40
  %26 = load ptr, ptr %25, align 8, !tbaa !19
  tail call void @free(ptr noundef nonnull %.02639.i) #29
  %.not34.i = icmp eq ptr %26, null
  br i1 %.not34.i, label %.loopexit.i, label %.preheader.i, !llvm.loop !177

.loopexit.i:                                      ; preds = %._crit_edge.i, %14
  %indvars.iv.next.i = add nuw nsw i64 %indvars.iv.i, 1
  %exitcond.not.i = icmp eq i64 %indvars.iv.next.i, 1024
  br i1 %exitcond.not.i, label %27, label %14, !llvm.loop !178

27:                                               ; preds = %.loopexit.i
  %28 = getelementptr inbounds nuw i8, ptr %12, i64 8216
  %29 = load ptr, ptr %28, align 8, !tbaa !172
  tail call void @sat_solver_delete(ptr noundef %29) #29
  %30 = getelementptr inbounds nuw i8, ptr %12, i64 8232
  %31 = load ptr, ptr %30, align 8, !tbaa !38
  %.not.i = icmp eq ptr %31, null
  br i1 %.not.i, label %Ses_StoreClean.exit, label %32

32:                                               ; preds = %27
  tail call void @free(ptr noundef nonnull %31) #29
  br label %Ses_StoreClean.exit

Ses_StoreClean.exit:                              ; preds = %27, %32
  tail call void @free(ptr noundef nonnull %12) #29
  br label %34

33:                                               ; preds = %1
  %puts = tail call i32 @puts(ptr nonnull dereferenceable(1) @str.4)
  br label %34

34:                                               ; preds = %33, %Ses_StoreClean.exit
  ret void
}